target datalayout = "e-m:e-p270:32:32-p271:32:32-p272:64:64-i64:64-i128:128-f80:128-n8:16:32:64-S128"
target triple = "x86_64-unknown-linux-gnu"

%"class.nlohmann::json_abi_v3_11_3::basic_json.185" = type { %"struct.nlohmann::json_abi_v3_11_3::basic_json<std::map, std::vector, std::__cxx11::basic_string<char>, bool, long, unsigned long, double, (anonymous namespace)::allocator_no_forward>::data" }
%"struct.nlohmann::json_abi_v3_11_3::basic_json<std::map, std::vector, std::__cxx11::basic_string<char>, bool, long, unsigned long, double, (anonymous namespace)::allocator_no_forward>::data" = type { i8, %"union.nlohmann::json_abi_v3_11_3::basic_json<std::map, std::vector, std::__cxx11::basic_string<char>, bool, long, unsigned long, double, (anonymous namespace)::allocator_no_forward>::json_value" }
%"union.nlohmann::json_abi_v3_11_3::basic_json<std::map, std::vector, std::__cxx11::basic_string<char>, bool, long, unsigned long, double, (anonymous namespace)::allocator_no_forward>::json_value" = type { ptr }

@.str.18 = private unnamed_addr constant [7 x i8] c"object\00", align 1
@.str.21 = private unnamed_addr constant [6 x i8] c"array\00", align 1
@.str.23 = private unnamed_addr constant [7 x i8] c"string\00", align 1
@.str.44 = private unnamed_addr constant [5 x i8] c"null\00", align 1
@.str.45 = private unnamed_addr constant [8 x i8] c"boolean\00", align 1
@.str.46 = private unnamed_addr constant [7 x i8] c"binary\00", align 1
@.str.47 = private unnamed_addr constant [10 x i8] c"discarded\00", align 1
@.str.48 = private unnamed_addr constant [7 x i8] c"number\00", align 1

; Function Attrs: mustprogress nounwind uwtable
define internal noundef nonnull ptr @_ZNK8nlohmann16json_abi_v3_11_310basic_jsonISt3mapSt6vectorNSt7__cxx1112basic_stringIcSt11char_traitsIcESaIcEEEblmdN12_GLOBAL__N_120allocator_no_forwardENS0_14adl_serializerES3_IhSaIhEEvE9type_nameEv(ptr noundef nonnull align 8 dereferenceable(16) %this) #1 align 2 {
entry:
  %retval = alloca ptr, align 8
  %this.addr = alloca ptr, align 8
  store ptr %this, ptr %this.addr, align 8
  %this1 = load ptr, ptr %this.addr, align 8
  %m_data = getelementptr inbounds %"class.nlohmann::json_abi_v3_11_3::basic_json.185", ptr %this1, i32 0, i32 0
  %m_type = getelementptr inbounds %"struct.nlohmann::json_abi_v3_11_3::basic_json<std::map, std::vector, std::__cxx11::basic_string<char>, bool, long, unsigned long, double, (anonymous namespace)::allocator_no_forward>::data", ptr %m_data, i32 0, i32 0
  %0 = load i8, ptr %m_type, align 8
  switch i8 %0, label %sw.default [
    i8 0, label %sw.bb
    i8 1, label %sw.bb2
    i8 2, label %sw.bb3
    i8 3, label %sw.bb4
    i8 4, label %sw.bb5
    i8 8, label %sw.bb6
    i8 9, label %sw.bb7
    i8 5, label %sw.bb8
    i8 6, label %sw.bb8
    i8 7, label %sw.bb8
  ]

sw.bb:                                            ; preds = %entry
  store ptr @.str.44, ptr %retval, align 8
  br label %return

sw.bb2:                                           ; preds = %entry
  store ptr @.str.18, ptr %retval, align 8
  br label %return

sw.bb3:                                           ; preds = %entry
  store ptr @.str.21, ptr %retval, align 8
  br label %return

sw.bb4:                                           ; preds = %entry
  store ptr @.str.23, ptr %retval, align 8
  br label %return

sw.bb5:                                           ; preds = %entry
  store ptr @.str.45, ptr %retval, align 8
  br label %return

sw.bb6:                                           ; preds = %entry
  store ptr @.str.46, ptr %retval, align 8
  br label %return

sw.bb7:                                           ; preds = %entry
  store ptr @.str.47, ptr %retval, align 8
  br label %return

sw.bb8:                                           ; preds = %entry, %entry, %entry
  br label %sw.default

sw.default:                                       ; preds = %sw.bb8, %entry
  store ptr @.str.48, ptr %retval, align 8
  br label %return

return:                                           ; preds = %sw.default, %sw.bb7, %sw.bb6, %sw.bb5, %sw.bb4, %sw.bb3, %sw.bb2, %sw.bb
  %1 = load ptr, ptr %retval, align 8
  ret ptr %1
}